(dp0
Vstatus
p1
VREQUEST_SUCCEEDED
p2
sVmessage
p3
(lp4
sVResults
p5
(dp6
Vseries
p7
(lp8
(dp9
VseriesID
p10
VCES6561000001
p11
sVdata
p12
(lp13
(dp14
Vfootnotes
p15
(lp16
(dp17
Vtext
p18
Vpreliminary
p19
sVcode
p20
VP
p21
sasVperiodName
p22
VApril
p23
sVperiod
p24
VM04
p25
sVvalue
p26
V3529.6
p27
sVyear
p28
V2016
p29
sa(dp30
Vfootnotes
p31
(lp32
(dp33
Vtext
p34
Vpreliminary
p35
sVcode
p36
g21
sasVperiodName
p37
VMarch
p38
sVperiod
p39
VM03
p40
sVvalue
p41
V3513.7
p42
sVyear
p43
V2016
p44
sa(dp45
Vfootnotes
p46
(lp47
(dp48
asVperiodName
p49
VFebruary
p50
sVperiod
p51
VM02
p52
sVvalue
p53
V3505.3
p54
sVyear
p55
V2016
p56
sa(dp57
Vfootnotes
p58
(lp59
(dp60
asVperiodName
p61
VJanuary
p62
sVperiod
p63
VM01
p64
sVvalue
p65
V3484.4
p66
sVyear
p67
V2016
p68
sasa(dp69
VseriesID
p70
VCES0500000001
p71
sVdata
p72
(lp73
(dp74
Vfootnotes
p75
(lp76
(dp77
Vtext
p78
Vpreliminary
p79
sVcode
p80
g21
sasVperiodName
p81
VApril
p82
sVperiod
p83
VM04
p84
sVvalue
p85
V121838
p86
sVyear
p87
V2016
p88
sa(dp89
Vfootnotes
p90
(lp91
(dp92
Vtext
p93
Vpreliminary
p94
sVcode
p95
g21
sasVperiodName
p96
VMarch
p97
sVperiod
p98
VM03
p99
sVvalue
p100
V121667
p101
sVyear
p102
V2016
p103
sa(dp104
Vfootnotes
p105
(lp106
(dp107
asVperiodName
p108
VFebruary
p109
sVperiod
p110
VM02
p111
sVvalue
p112
V121483
p113
sVyear
p114
V2016
p115
sa(dp116
Vfootnotes
p117
(lp118
(dp119
asVperiodName
p120
VJanuary
p121
sVperiod
p122
VM01
p123
sVvalue
p124
V121261
p125
sVyear
p126
V2016
p127
sasa(dp128
VseriesID
p129
VLNS14000000
p130
sVdata
p131
(lp132
(dp133
Vfootnotes
p134
(lp135
(dp136
asVperiodName
p137
VApril
p138
sVperiod
p139
VM04
p140
sVvalue
p141
V5.0
p142
sVyear
p143
V2016
p144
sa(dp145
Vfootnotes
p146
(lp147
(dp148
asVperiodName
p149
VMarch
p150
sVperiod
p151
VM03
p152
sVvalue
p153
V5.0
p154
sVyear
p155
V2016
p156
sa(dp157
Vfootnotes
p158
(lp159
(dp160
asVperiodName
p161
VFebruary
p162
sVperiod
p163
VM02
p164
sVvalue
p165
V4.9
p166
sVyear
p167
V2016
p168
sa(dp169
Vfootnotes
p170
(lp171
(dp172
asVperiodName
p173
VJanuary
p174
sVperiod
p175
VM01
p176
sVvalue
p177
V4.9
p178
sVyear
p179
V2016
p180
sasa(dp181
VseriesID
p182
VLNS12300060
p183
sVdata
p184
(lp185
(dp186
Vfootnotes
p187
(lp188
(dp189
asVperiodName
p190
VApril
p191
sVperiod
p192
VM04
p193
sVvalue
p194
V77.7
p195
sVyear
p196
V2016
p197
sa(dp198
Vfootnotes
p199
(lp200
(dp201
asVperiodName
p202
VMarch
p203
sVperiod
p204
VM03
p205
sVvalue
p206
V78.0
p207
sVyear
p208
V2016
p209
sa(dp210
Vfootnotes
p211
(lp212
(dp213
asVperiodName
p214
VFebruary
p215
sVperiod
p216
VM02
p217
sVvalue
p218
V77.8
p219
sVyear
p220
V2016
p221
sa(dp222
Vfootnotes
p223
(lp224
(dp225
asVperiodName
p226
VJanuary
p227
sVperiod
p228
VM01
p229
sVvalue
p230
V77.7
p231
sVyear
p232
V2016
p233
sasa(dp234
VseriesID
p235
VLNS14000003
p236
sVdata
p237
(lp238
(dp239
Vfootnotes
p240
(lp241
(dp242
asVperiodName
p243
VApril
p244
sVperiod
p245
VM04
p246
sVvalue
p247
V4.3
p248
sVyear
p249
V2016
p250
sa(dp251
Vfootnotes
p252
(lp253
(dp254
asVperiodName
p255
VMarch
p256
sVperiod
p257
VM03
p258
sVvalue
p259
V4.3
p260
sVyear
p261
V2016
p262
sa(dp263
Vfootnotes
p264
(lp265
(dp266
asVperiodName
p267
VFebruary
p268
sVperiod
p269
VM02
p270
sVvalue
p271
V4.3
p272
sVyear
p273
V2016
p274
sa(dp275
Vfootnotes
p276
(lp277
(dp278
asVperiodName
p279
VJanuary
p280
sVperiod
p281
VM01
p282
sVvalue
p283
V4.3
p284
sVyear
p285
V2016
p286
sasa(dp287
VseriesID
p288
VLNS14000006
p289
sVdata
p290
(lp291
(dp292
Vfootnotes
p293
(lp294
(dp295
asVperiodName
p296
VApril
p297
sVperiod
p298
VM04
p299
sVvalue
p300
V8.8
p301
sVyear
p302
V2016
p303
sa(dp304
Vfootnotes
p305
(lp306
(dp307
asVperiodName
p308
VMarch
p309
sVperiod
p310
VM03
p311
sVvalue
p312
V9.0
p313
sVyear
p314
V2016
p315
sa(dp316
Vfootnotes
p317
(lp318
(dp319
asVperiodName
p320
VFebruary
p321
sVperiod
p322
VM02
p323
sVvalue
p324
V8.8
p325
sVyear
p326
V2016
p327
sa(dp328
Vfootnotes
p329
(lp330
(dp331
asVperiodName
p332
VJanuary
p333
sVperiod
p334
VM01
p335
sVvalue
p336
V8.8
p337
sVyear
p338
V2016
p339
sasa(dp340
VseriesID
p341
VCES0500000008
p342
sVdata
p343
(lp344
(dp345
Vfootnotes
p346
(lp347
(dp348
Vtext
p349
Vpreliminary
p350
sVcode
p351
g21
sasVperiodName
p352
VApril
p353
sVperiod
p354
VM04
p355
sVvalue
p356
V21.45
p357
sVyear
p358
V2016
p359
sa(dp360
Vfootnotes
p361
(lp362
(dp363
Vtext
p364
Vpreliminary
p365
sVcode
p366
g21
sasVperiodName
p367
VMarch
p368
sVperiod
p369
VM03
p370
sVvalue
p371
V21.40
p372
sVyear
p373
V2016
p374
sa(dp375
Vfootnotes
p376
(lp377
(dp378
asVperiodName
p379
VFebruary
p380
sVperiod
p381
VM02
p382
sVvalue
p383
V21.35
p384
sVyear
p385
V2016
p386
sa(dp387
Vfootnotes
p388
(lp389
(dp390
asVperiodName
p391
VJanuary
p392
sVperiod
p393
VM01
p394
sVvalue
p395
V21.33
p396
sVyear
p397
V2016
p398
sasa(dp399
VseriesID
p400
VCES2000000001
p401
sVdata
p402
(lp403
(dp404
Vfootnotes
p405
(lp406
(dp407
Vtext
p408
Vpreliminary
p409
sVcode
p410
g21
sasVperiodName
p411
VApril
p412
sVperiod
p413
VM04
p414
sVvalue
p415
V6670
p416
sVyear
p417
V2016
p418
sa(dp419
Vfootnotes
p420
(lp421
(dp422
Vtext
p423
Vpreliminary
p424
sVcode
p425
g21
sasVperiodName
p426
VMarch
p427
sVperiod
p428
VM03
p429
sVvalue
p430
V6669
p431
sVyear
p432
V2016
p433
sa(dp434
Vfootnotes
p435
(lp436
(dp437
asVperiodName
p438
VFebruary
p439
sVperiod
p440
VM02
p441
sVvalue
p442
V6628
p443
sVyear
p444
V2016
p445
sa(dp446
Vfootnotes
p447
(lp448
(dp449
asVperiodName
p450
VJanuary
p451
sVperiod
p452
VM01
p453
sVvalue
p454
V6615
p455
sVyear
p456
V2016
p457
sasa(dp458
VseriesID
p459
VCES9000000001
p460
sVdata
p461
(lp462
(dp463
Vfootnotes
p464
(lp465
(dp466
Vtext
p467
Vpreliminary
p468
sVcode
p469
g21
sasVperiodName
p470
VApril
p471
sVperiod
p472
VM04
p473
sVvalue
p474
V22077
p475
sVyear
p476
V2016
p477
sa(dp478
Vfootnotes
p479
(lp480
(dp481
Vtext
p482
Vpreliminary
p483
sVcode
p484
g21
sasVperiodName
p485
VMarch
p486
sVperiod
p487
VM03
p488
sVvalue
p489
V22088
p490
sVyear
p491
V2016
p492
sa(dp493
Vfootnotes
p494
(lp495
(dp496
asVperiodName
p497
VFebruary
p498
sVperiod
p499
VM02
p500
sVvalue
p501
V22064
p502
sVyear
p503
V2016
p504
sa(dp505
Vfootnotes
p506
(lp507
(dp508
asVperiodName
p509
VJanuary
p510
sVperiod
p511
VM01
p512
sVvalue
p513
V22053
p514
sVyear
p515
V2016
p516
sasa(dp517
VseriesID
p518
VLNS14000009
p519
sVdata
p520
(lp521
(dp522
Vfootnotes
p523
(lp524
(dp525
asVperiodName
p526
VApril
p527
sVperiod
p528
VM04
p529
sVvalue
p530
V6.1
p531
sVyear
p532
V2016
p533
sa(dp534
Vfootnotes
p535
(lp536
(dp537
asVperiodName
p538
VMarch
p539
sVperiod
p540
VM03
p541
sVvalue
p542
V5.6
p543
sVyear
p544
V2016
p545
sa(dp546
Vfootnotes
p547
(lp548
(dp549
asVperiodName
p550
VFebruary
p551
sVperiod
p552
VM02
p553
sVvalue
p554
V5.4
p555
sVyear
p556
V2016
p557
sa(dp558
Vfootnotes
p559
(lp560
(dp561
asVperiodName
p562
VJanuary
p563
sVperiod
p564
VM01
p565
sVvalue
p566
V5.9
p567
sVyear
p568
V2016
p569
sasa(dp570
VseriesID
p571
VLNS12600000
p572
sVdata
p573
(lp574
(dp575
Vfootnotes
p576
(lp577
(dp578
asVperiodName
p579
VApril
p580
sVperiod
p581
VM04
p582
sVvalue
p583
V27797
p584
sVyear
p585
V2016
p586
sa(dp587
Vfootnotes
p588
(lp589
(dp590
asVperiodName
p591
VMarch
p592
sVperiod
p593
VM03
p594
sVvalue
p595
V27818
p596
sVyear
p597
V2016
p598
sa(dp599
Vfootnotes
p600
(lp601
(dp602
asVperiodName
p603
VFebruary
p604
sVperiod
p605
VM02
p606
sVvalue
p607
V27853
p608
sVyear
p609
V2016
p610
sa(dp611
Vfootnotes
p612
(lp613
(dp614
asVperiodName
p615
VJanuary
p616
sVperiod
p617
VM01
p618
sVvalue
p619
V27364
p620
sVyear
p621
V2016
p622
sasa(dp623
VseriesID
p624
VCES4200000001
p625
sVdata
p626
(lp627
(dp628
Vfootnotes
p629
(lp630
(dp631
Vtext
p632
Vpreliminary
p633
sVcode
p634
g21
sasVperiodName
p635
VApril
p636
sVperiod
p637
VM04
p638
sVvalue
p639
V15915.2
p640
sVyear
p641
V2016
p642
sa(dp643
Vfootnotes
p644
(lp645
(dp646
Vtext
p647
Vpreliminary
p648
sVcode
p649
g21
sasVperiodName
p650
VMarch
p651
sVperiod
p652
VM03
p653
sVvalue
p654
V15918.3
p655
sVyear
p656
V2016
p657
sa(dp658
Vfootnotes
p659
(lp660
(dp661
asVperiodName
p662
VFebruary
p663
sVperiod
p664
VM02
p665
sVvalue
p666
V15879.3
p667
sVyear
p668
V2016
p669
sa(dp670
Vfootnotes
p671
(lp672
(dp673
asVperiodName
p674
VJanuary
p675
sVperiod
p676
VM01
p677
sVvalue
p678
V15827.3
p679
sVyear
p680
V2016
p681
sasa(dp682
VseriesID
p683
VLNS13327709
p684
sVdata
p685
(lp686
(dp687
Vfootnotes
p688
(lp689
(dp690
asVperiodName
p691
VApril
p692
sVperiod
p693
VM04
p694
sVvalue
p695
V9.7
p696
sVyear
p697
V2016
p698
sa(dp699
Vfootnotes
p700
(lp701
(dp702
asVperiodName
p703
VMarch
p704
sVperiod
p705
VM03
p706
sVvalue
p707
V9.8
p708
sVyear
p709
V2016
p710
sa(dp711
Vfootnotes
p712
(lp713
(dp714
asVperiodName
p715
VFebruary
p716
sVperiod
p717
VM02
p718
sVvalue
p719
V9.7
p720
sVyear
p721
V2016
p722
sa(dp723
Vfootnotes
p724
(lp725
(dp726
asVperiodName
p727
VJanuary
p728
sVperiod
p729
VM01
p730
sVvalue
p731
V9.9
p732
sVyear
p733
V2016
p734
sasa(dp735
VseriesID
p736
VCUUR0000SA0
p737
sVdata
p738
(lp739
(dp740
Vfootnotes
p741
(lp742
(dp743
asVperiodName
p744
VApril
p745
sVperiod
p746
VM04
p747
sVvalue
p748
V239.261
p749
sVyear
p750
V2016
p751
sa(dp752
Vfootnotes
p753
(lp754
(dp755
asVperiodName
p756
VMarch
p757
sVperiod
p758
VM03
p759
sVvalue
p760
V238.132
p761
sVyear
p762
V2016
p763
sa(dp764
Vfootnotes
p765
(lp766
(dp767
asVperiodName
p768
VFebruary
p769
sVperiod
p770
VM02
p771
sVvalue
p772
V237.111
p773
sVyear
p774
V2016
p775
sa(dp776
Vfootnotes
p777
(lp778
(dp779
asVperiodName
p780
VJanuary
p781
sVperiod
p782
VM01
p783
sVvalue
p784
V236.916
p785
sVyear
p786
V2016
p787
sasa(dp788
VseriesID
p789
VLNS12032194
p790
sVdata
p791
(lp792
(dp793
Vfootnotes
p794
(lp795
(dp796
asVperiodName
p797
VApril
p798
sVperiod
p799
VM04
p800
sVvalue
p801
V5962
p802
sVyear
p803
V2016
p804
sa(dp805
Vfootnotes
p806
(lp807
(dp808
asVperiodName
p809
VMarch
p810
sVperiod
p811
VM03
p812
sVvalue
p813
V6123
p814
sVyear
p815
V2016
p816
sa(dp817
Vfootnotes
p818
(lp819
(dp820
asVperiodName
p821
VFebruary
p822
sVperiod
p823
VM02
p824
sVvalue
p825
V5988
p826
sVyear
p827
V2016
p828
sa(dp829
Vfootnotes
p830
(lp831
(dp832
asVperiodName
p833
VJanuary
p834
sVperiod
p835
VM01
p836
sVvalue
p837
V5988
p838
sVyear
p839
V2016
p840
sasa(dp841
VseriesID
p842
VCES6562000001
p843
sVdata
p844
(lp845
(dp846
Vfootnotes
p847
(lp848
(dp849
Vtext
p850
Vpreliminary
p851
sVcode
p852
g21
sasVperiodName
p853
VApril
p854
sVperiod
p855
VM04
p856
sVvalue
p857
V19048.3
p858
sVyear
p859
V2016
p860
sa(dp861
Vfootnotes
p862
(lp863
(dp864
Vtext
p865
Vpreliminary
p866
sVcode
p867
g21
sasVperiodName
p868
VMarch
p869
sVperiod
p870
VM03
p871
sVvalue
p872
V19010.1
p873
sVyear
p874
V2016
p875
sa(dp876
Vfootnotes
p877
(lp878
(dp879
asVperiodName
p880
VFebruary
p881
sVperiod
p882
VM02
p883
sVvalue
p884
V18976.1
p885
sVyear
p886
V2016
p887
sa(dp888
Vfootnotes
p889
(lp890
(dp891
asVperiodName
p892
VJanuary
p893
sVperiod
p894
VM01
p895
sVvalue
p896
V18919.4
p897
sVyear
p898
V2016
p899
sasa(dp900
VseriesID
p901
VCES3000000001
p902
sVdata
p903
(lp904
(dp905
Vfootnotes
p906
(lp907
(dp908
Vtext
p909
Vpreliminary
p910
sVcode
p911
g21
sasVperiodName
p912
VApril
p913
sVperiod
p914
VM04
p915
sVvalue
p916
V12297
p917
sVyear
p918
V2016
p919
sa(dp920
Vfootnotes
p921
(lp922
(dp923
Vtext
p924
Vpreliminary
p925
sVcode
p926
g21
sasVperiodName
p927
VMarch
p928
sVperiod
p929
VM03
p930
sVvalue
p931
V12293
p932
sVyear
p933
V2016
p934
sa(dp935
Vfootnotes
p936
(lp937
(dp938
asVperiodName
p939
VFebruary
p940
sVperiod
p941
VM02
p942
sVvalue
p943
V12322
p944
sVyear
p945
V2016
p946
sa(dp947
Vfootnotes
p948
(lp949
(dp950
asVperiodName
p951
VJanuary
p952
sVperiod
p953
VM01
p954
sVvalue
p955
V12338
p956
sVyear
p957
V2016
p958
sasassVresponseTime
p959
I892
s.