(dp0
Vstatus
p1
VREQUEST_SUCCEEDED
p2
sVmessage
p3
(lp4
sVResults
p5
(dp6
Vseries
p7
(lp8
(dp9
VseriesID
p10
VCES6561000001
p11
sVdata
p12
(lp13
(dp14
Vfootnotes
p15
(lp16
(dp17
Vtext
p18
Vpreliminary
p19
sVcode
p20
VP
p21
sasVperiodName
p22
VApril
p23
sVperiod
p24
VM04
p25
sVvalue
p26
V3529.6
p27
sVyear
p28
V2016
p29
sa(dp30
Vfootnotes
p31
(lp32
(dp33
Vtext
p34
Vpreliminary
p35
sVcode
p36
g21
sasVperiodName
p37
VMarch
p38
sVperiod
p39
VM03
p40
sVvalue
p41
V3513.7
p42
sVyear
p43
V2016
p44
sa(dp45
Vfootnotes
p46
(lp47
(dp48
asVperiodName
p49
VFebruary
p50
sVperiod
p51
VM02
p52
sVvalue
p53
V3505.3
p54
sVyear
p55
V2016
p56
sa(dp57
Vfootnotes
p58
(lp59
(dp60
asVperiodName
p61
VJanuary
p62
sVperiod
p63
VM01
p64
sVvalue
p65
V3484.4
p66
sVyear
p67
V2016
p68
sa(dp69
Vfootnotes
p70
(lp71
(dp72
asVperiodName
p73
VDecember
p74
sVperiod
p75
VM12
p76
sVvalue
p77
V3501.8
p78
sVyear
p79
V2015
p80
sa(dp81
Vfootnotes
p82
(lp83
(dp84
asVperiodName
p85
VNovember
p86
sVperiod
p87
VM11
p88
sVvalue
p89
V3485.6
p90
sVyear
p91
V2015
p92
sa(dp93
Vfootnotes
p94
(lp95
(dp96
asVperiodName
p97
VOctober
p98
sVperiod
p99
VM10
p100
sVvalue
p101
V3482.6
p102
sVyear
p103
V2015
p104
sa(dp105
Vfootnotes
p106
(lp107
(dp108
asVperiodName
p109
VSeptember
p110
sVperiod
p111
VM09
p112
sVvalue
p113
V3471.5
p114
sVyear
p115
V2015
p116
sa(dp117
Vfootnotes
p118
(lp119
(dp120
asVperiodName
p121
VAugust
p122
sVperiod
p123
VM08
p124
sVvalue
p125
V3463.2
p126
sVyear
p127
V2015
p128
sa(dp129
Vfootnotes
p130
(lp131
(dp132
asVperiodName
p133
VJuly
p134
sVperiod
p135
VM07
p136
sVvalue
p137
V3461.6
p138
sVyear
p139
V2015
p140
sa(dp141
Vfootnotes
p142
(lp143
(dp144
asVperiodName
p145
VJune
p146
sVperiod
p147
VM06
p148
sVvalue
p149
V3452.3
p150
sVyear
p151
V2015
p152
sa(dp153
Vfootnotes
p154
(lp155
(dp156
asVperiodName
p157
VMay
p158
sVperiod
p159
VM05
p160
sVvalue
p161
V3450.3
p162
sVyear
p163
V2015
p164
sa(dp165
Vfootnotes
p166
(lp167
(dp168
asVperiodName
p169
VApril
p170
sVperiod
p171
VM04
p172
sVvalue
p173
V3454.3
p174
sVyear
p175
V2015
p176
sa(dp177
Vfootnotes
p178
(lp179
(dp180
asVperiodName
p181
VMarch
p182
sVperiod
p183
VM03
p184
sVvalue
p185
V3452.7
p186
sVyear
p187
V2015
p188
sa(dp189
Vfootnotes
p190
(lp191
(dp192
asVperiodName
p193
VFebruary
p194
sVperiod
p195
VM02
p196
sVvalue
p197
V3447.7
p198
sVyear
p199
V2015
p200
sa(dp201
Vfootnotes
p202
(lp203
(dp204
asVperiodName
p205
VJanuary
p206
sVperiod
p207
VM01
p208
sVvalue
p209
V3427.1
p210
sVyear
p211
V2015
p212
sasa(dp213
VseriesID
p214
VCES0500000001
p215
sVdata
p216
(lp217
(dp218
Vfootnotes
p219
(lp220
(dp221
Vtext
p222
Vpreliminary
p223
sVcode
p224
g21
sasVperiodName
p225
VApril
p226
sVperiod
p227
VM04
p228
sVvalue
p229
V121838
p230
sVyear
p231
V2016
p232
sa(dp233
Vfootnotes
p234
(lp235
(dp236
Vtext
p237
Vpreliminary
p238
sVcode
p239
g21
sasVperiodName
p240
VMarch
p241
sVperiod
p242
VM03
p243
sVvalue
p244
V121667
p245
sVyear
p246
V2016
p247
sa(dp248
Vfootnotes
p249
(lp250
(dp251
asVperiodName
p252
VFebruary
p253
sVperiod
p254
VM02
p255
sVvalue
p256
V121483
p257
sVyear
p258
V2016
p259
sa(dp260
Vfootnotes
p261
(lp262
(dp263
asVperiodName
p264
VJanuary
p265
sVperiod
p266
VM01
p267
sVvalue
p268
V121261
p269
sVyear
p270
V2016
p271
sa(dp272
Vfootnotes
p273
(lp274
(dp275
asVperiodName
p276
VDecember
p277
sVperiod
p278
VM12
p279
sVvalue
p280
V121106
p281
sVyear
p282
V2015
p283
sa(dp284
Vfootnotes
p285
(lp286
(dp287
asVperiodName
p288
VNovember
p289
sVperiod
p290
VM11
p291
sVvalue
p292
V120847
p293
sVyear
p294
V2015
p295
sa(dp296
Vfootnotes
p297
(lp298
(dp299
asVperiodName
p300
VOctober
p301
sVperiod
p302
VM10
p303
sVvalue
p304
V120568
p305
sVyear
p306
V2015
p307
sa(dp308
Vfootnotes
p309
(lp310
(dp311
asVperiodName
p312
VSeptember
p313
sVperiod
p314
VM09
p315
sVvalue
p316
V120264
p317
sVyear
p318
V2015
p319
sa(dp320
Vfootnotes
p321
(lp322
(dp323
asVperiodName
p324
VAugust
p325
sVperiod
p326
VM08
p327
sVvalue
p328
V120102
p329
sVyear
p330
V2015
p331
sa(dp332
Vfootnotes
p333
(lp334
(dp335
asVperiodName
p336
VJuly
p337
sVperiod
p338
VM07
p339
sVvalue
p340
V119979
p341
sVyear
p342
V2015
p343
sa(dp344
Vfootnotes
p345
(lp346
(dp347
asVperiodName
p348
VJune
p349
sVperiod
p350
VM06
p351
sVvalue
p352
V119734
p353
sVyear
p354
V2015
p355
sa(dp356
Vfootnotes
p357
(lp358
(dp359
asVperiodName
p360
VMay
p361
sVperiod
p362
VM05
p363
sVvalue
p364
V119508
p365
sVyear
p366
V2015
p367
sa(dp368
Vfootnotes
p369
(lp370
(dp371
asVperiodName
p372
VApril
p373
sVperiod
p374
VM04
p375
sVvalue
p376
V119252
p377
sVyear
p378
V2015
p379
sa(dp380
Vfootnotes
p381
(lp382
(dp383
asVperiodName
p384
VMarch
p385
sVperiod
p386
VM03
p387
sVvalue
p388
V119011
p389
sVyear
p390
V2015
p391
sa(dp392
Vfootnotes
p393
(lp394
(dp395
asVperiodName
p396
VFebruary
p397
sVperiod
p398
VM02
p399
sVvalue
p400
V118921
p401
sVyear
p402
V2015
p403
sa(dp404
Vfootnotes
p405
(lp406
(dp407
asVperiodName
p408
VJanuary
p409
sVperiod
p410
VM01
p411
sVvalue
p412
V118669
p413
sVyear
p414
V2015
p415
sasa(dp416
VseriesID
p417
VLNS14000000
p418
sVdata
p419
(lp420
(dp421
Vfootnotes
p422
(lp423
(dp424
asVperiodName
p425
VApril
p426
sVperiod
p427
VM04
p428
sVvalue
p429
V5.0
p430
sVyear
p431
V2016
p432
sa(dp433
Vfootnotes
p434
(lp435
(dp436
asVperiodName
p437
VMarch
p438
sVperiod
p439
VM03
p440
sVvalue
p441
V5.0
p442
sVyear
p443
V2016
p444
sa(dp445
Vfootnotes
p446
(lp447
(dp448
asVperiodName
p449
VFebruary
p450
sVperiod
p451
VM02
p452
sVvalue
p453
V4.9
p454
sVyear
p455
V2016
p456
sa(dp457
Vfootnotes
p458
(lp459
(dp460
asVperiodName
p461
VJanuary
p462
sVperiod
p463
VM01
p464
sVvalue
p465
V4.9
p466
sVyear
p467
V2016
p468
sa(dp469
Vfootnotes
p470
(lp471
(dp472
asVperiodName
p473
VDecember
p474
sVperiod
p475
VM12
p476
sVvalue
p477
V5.0
p478
sVyear
p479
V2015
p480
sa(dp481
Vfootnotes
p482
(lp483
(dp484
asVperiodName
p485
VNovember
p486
sVperiod
p487
VM11
p488
sVvalue
p489
V5.0
p490
sVyear
p491
V2015
p492
sa(dp493
Vfootnotes
p494
(lp495
(dp496
asVperiodName
p497
VOctober
p498
sVperiod
p499
VM10
p500
sVvalue
p501
V5.0
p502
sVyear
p503
V2015
p504
sa(dp505
Vfootnotes
p506
(lp507
(dp508
asVperiodName
p509
VSeptember
p510
sVperiod
p511
VM09
p512
sVvalue
p513
V5.1
p514
sVyear
p515
V2015
p516
sa(dp517
Vfootnotes
p518
(lp519
(dp520
asVperiodName
p521
VAugust
p522
sVperiod
p523
VM08
p524
sVvalue
p525
V5.1
p526
sVyear
p527
V2015
p528
sa(dp529
Vfootnotes
p530
(lp531
(dp532
asVperiodName
p533
VJuly
p534
sVperiod
p535
VM07
p536
sVvalue
p537
V5.3
p538
sVyear
p539
V2015
p540
sa(dp541
Vfootnotes
p542
(lp543
(dp544
asVperiodName
p545
VJune
p546
sVperiod
p547
VM06
p548
sVvalue
p549
V5.3
p550
sVyear
p551
V2015
p552
sa(dp553
Vfootnotes
p554
(lp555
(dp556
asVperiodName
p557
VMay
p558
sVperiod
p559
VM05
p560
sVvalue
p561
V5.5
p562
sVyear
p563
V2015
p564
sa(dp565
Vfootnotes
p566
(lp567
(dp568
asVperiodName
p569
VApril
p570
sVperiod
p571
VM04
p572
sVvalue
p573
V5.4
p574
sVyear
p575
V2015
p576
sa(dp577
Vfootnotes
p578
(lp579
(dp580
asVperiodName
p581
VMarch
p582
sVperiod
p583
VM03
p584
sVvalue
p585
V5.5
p586
sVyear
p587
V2015
p588
sa(dp589
Vfootnotes
p590
(lp591
(dp592
asVperiodName
p593
VFebruary
p594
sVperiod
p595
VM02
p596
sVvalue
p597
V5.5
p598
sVyear
p599
V2015
p600
sa(dp601
Vfootnotes
p602
(lp603
(dp604
asVperiodName
p605
VJanuary
p606
sVperiod
p607
VM01
p608
sVvalue
p609
V5.7
p610
sVyear
p611
V2015
p612
sasa(dp613
VseriesID
p614
VLNS12300060
p615
sVdata
p616
(lp617
(dp618
Vfootnotes
p619
(lp620
(dp621
asVperiodName
p622
VApril
p623
sVperiod
p624
VM04
p625
sVvalue
p626
V77.7
p627
sVyear
p628
V2016
p629
sa(dp630
Vfootnotes
p631
(lp632
(dp633
asVperiodName
p634
VMarch
p635
sVperiod
p636
VM03
p637
sVvalue
p638
V78.0
p639
sVyear
p640
V2016
p641
sa(dp642
Vfootnotes
p643
(lp644
(dp645
asVperiodName
p646
VFebruary
p647
sVperiod
p648
VM02
p649
sVvalue
p650
V77.8
p651
sVyear
p652
V2016
p653
sa(dp654
Vfootnotes
p655
(lp656
(dp657
asVperiodName
p658
VJanuary
p659
sVperiod
p660
VM01
p661
sVvalue
p662
V77.7
p663
sVyear
p664
V2016
p665
sa(dp666
Vfootnotes
p667
(lp668
(dp669
asVperiodName
p670
VDecember
p671
sVperiod
p672
VM12
p673
sVvalue
p674
V77.4
p675
sVyear
p676
V2015
p677
sa(dp678
Vfootnotes
p679
(lp680
(dp681
asVperiodName
p682
VNovember
p683
sVperiod
p684
VM11
p685
sVvalue
p686
V77.4
p687
sVyear
p688
V2015
p689
sa(dp690
Vfootnotes
p691
(lp692
(dp693
asVperiodName
p694
VOctober
p695
sVperiod
p696
VM10
p697
sVvalue
p698
V77.2
p699
sVyear
p700
V2015
p701
sa(dp702
Vfootnotes
p703
(lp704
(dp705
asVperiodName
p706
VSeptember
p707
sVperiod
p708
VM09
p709
sVvalue
p710
V77.3
p711
sVyear
p712
V2015
p713
sa(dp714
Vfootnotes
p715
(lp716
(dp717
asVperiodName
p718
VAugust
p719
sVperiod
p720
VM08
p721
sVvalue
p722
V77.2
p723
sVyear
p724
V2015
p725
sa(dp726
Vfootnotes
p727
(lp728
(dp729
asVperiodName
p730
VJuly
p731
sVperiod
p732
VM07
p733
sVvalue
p734
V77.1
p735
sVyear
p736
V2015
p737
sa(dp738
Vfootnotes
p739
(lp740
(dp741
asVperiodName
p742
VJune
p743
sVperiod
p744
VM06
p745
sVvalue
p746
V77.2
p747
sVyear
p748
V2015
p749
sa(dp750
Vfootnotes
p751
(lp752
(dp753
asVperiodName
p754
VMay
p755
sVperiod
p756
VM05
p757
sVvalue
p758
V77.2
p759
sVyear
p760
V2015
p761
sa(dp762
Vfootnotes
p763
(lp764
(dp765
asVperiodName
p766
VApril
p767
sVperiod
p768
VM04
p769
sVvalue
p770
V77.2
p771
sVyear
p772
V2015
p773
sa(dp774
Vfootnotes
p775
(lp776
(dp777
asVperiodName
p778
VMarch
p779
sVperiod
p780
VM03
p781
sVvalue
p782
V77.2
p783
sVyear
p784
V2015
p785
sa(dp786
Vfootnotes
p787
(lp788
(dp789
asVperiodName
p790
VFebruary
p791
sVperiod
p792
VM02
p793
sVvalue
p794
V77.3
p795
sVyear
p796
V2015
p797
sa(dp798
Vfootnotes
p799
(lp800
(dp801
asVperiodName
p802
VJanuary
p803
sVperiod
p804
VM01
p805
sVvalue
p806
V77.2
p807
sVyear
p808
V2015
p809
sasa(dp810
VseriesID
p811
VLNS14000003
p812
sVdata
p813
(lp814
(dp815
Vfootnotes
p816
(lp817
(dp818
asVperiodName
p819
VApril
p820
sVperiod
p821
VM04
p822
sVvalue
p823
V4.3
p824
sVyear
p825
V2016
p826
sa(dp827
Vfootnotes
p828
(lp829
(dp830
asVperiodName
p831
VMarch
p832
sVperiod
p833
VM03
p834
sVvalue
p835
V4.3
p836
sVyear
p837
V2016
p838
sa(dp839
Vfootnotes
p840
(lp841
(dp842
asVperiodName
p843
VFebruary
p844
sVperiod
p845
VM02
p846
sVvalue
p847
V4.3
p848
sVyear
p849
V2016
p850
sa(dp851
Vfootnotes
p852
(lp853
(dp854
asVperiodName
p855
VJanuary
p856
sVperiod
p857
VM01
p858
sVvalue
p859
V4.3
p860
sVyear
p861
V2016
p862
sa(dp863
Vfootnotes
p864
(lp865
(dp866
asVperiodName
p867
VDecember
p868
sVperiod
p869
VM12
p870
sVvalue
p871
V4.5
p872
sVyear
p873
V2015
p874
sa(dp875
Vfootnotes
p876
(lp877
(dp878
asVperiodName
p879
VNovember
p880
sVperiod
p881
VM11
p882
sVvalue
p883
V4.4
p884
sVyear
p885
V2015
p886
sa(dp887
Vfootnotes
p888
(lp889
(dp890
asVperiodName
p891
VOctober
p892
sVperiod
p893
VM10
p894
sVvalue
p895
V4.4
p896
sVyear
p897
V2015
p898
sa(dp899
Vfootnotes
p900
(lp901
(dp902
asVperiodName
p903
VSeptember
p904
sVperiod
p905
VM09
p906
sVvalue
p907
V4.4
p908
sVyear
p909
V2015
p910
sa(dp911
Vfootnotes
p912
(lp913
(dp914
asVperiodName
p915
VAugust
p916
sVperiod
p917
VM08
p918
sVvalue
p919
V4.4
p920
sVyear
p921
V2015
p922
sa(dp923
Vfootnotes
p924
(lp925
(dp926
asVperiodName
p927
VJuly
p928
sVperiod
p929
VM07
p930
sVvalue
p931
V4.6
p932
sVyear
p933
V2015
p934
sa(dp935
Vfootnotes
p936
(lp937
(dp938
asVperiodName
p939
VJune
p940
sVperiod
p941
VM06
p942
sVvalue
p943
V4.6
p944
sVyear
p945
V2015
p946
sa(dp947
Vfootnotes
p948
(lp949
(dp950
asVperiodName
p951
VMay
p952
sVperiod
p953
VM05
p954
sVvalue
p955
V4.7
p956
sVyear
p957
V2015
p958
sa(dp959
Vfootnotes
p960
(lp961
(dp962
asVperiodName
p963
VApril
p964
sVperiod
p965
VM04
p966
sVvalue
p967
V4.7
p968
sVyear
p969
V2015
p970
sa(dp971
Vfootnotes
p972
(lp973
(dp974
asVperiodName
p975
VMarch
p976
sVperiod
p977
VM03
p978
sVvalue
p979
V4.7
p980
sVyear
p981
V2015
p982
sa(dp983
Vfootnotes
p984
(lp985
(dp986
asVperiodName
p987
VFebruary
p988
sVperiod
p989
VM02
p990
sVvalue
p991
V4.7
p992
sVyear
p993
V2015
p994
sa(dp995
Vfootnotes
p996
(lp997
(dp998
asVperiodName
p999
VJanuary
p1000
sVperiod
p1001
VM01
p1002
sVvalue
p1003
V4.9
p1004
sVyear
p1005
V2015
p1006
sasa(dp1007
VseriesID
p1008
VLNS14000006
p1009
sVdata
p1010
(lp1011
(dp1012
Vfootnotes
p1013
(lp1014
(dp1015
asVperiodName
p1016
VApril
p1017
sVperiod
p1018
VM04
p1019
sVvalue
p1020
V8.8
p1021
sVyear
p1022
V2016
p1023
sa(dp1024
Vfootnotes
p1025
(lp1026
(dp1027
asVperiodName
p1028
VMarch
p1029
sVperiod
p1030
VM03
p1031
sVvalue
p1032
V9.0
p1033
sVyear
p1034
V2016
p1035
sa(dp1036
Vfootnotes
p1037
(lp1038
(dp1039
asVperiodName
p1040
VFebruary
p1041
sVperiod
p1042
VM02
p1043
sVvalue
p1044
V8.8
p1045
sVyear
p1046
V2016
p1047
sa(dp1048
Vfootnotes
p1049
(lp1050
(dp1051
asVperiodName
p1052
VJanuary
p1053
sVperiod
p1054
VM01
p1055
sVvalue
p1056
V8.8
p1057
sVyear
p1058
V2016
p1059
sa(dp1060
Vfootnotes
p1061
(lp1062
(dp1063
asVperiodName
p1064
VDecember
p1065
sVperiod
p1066
VM12
p1067
sVvalue
p1068
V8.3
p1069
sVyear
p1070
V2015
p1071
sa(dp1072
Vfootnotes
p1073
(lp1074
(dp1075
asVperiodName
p1076
VNovember
p1077
sVperiod
p1078
VM11
p1079
sVvalue
p1080
V9.4
p1081
sVyear
p1082
V2015
p1083
sa(dp1084
Vfootnotes
p1085
(lp1086
(dp1087
asVperiodName
p1088
VOctober
p1089
sVperiod
p1090
VM10
p1091
sVvalue
p1092
V9.2
p1093
sVyear
p1094
V2015
p1095
sa(dp1096
Vfootnotes
p1097
(lp1098
(dp1099
asVperiodName
p1100
VSeptember
p1101
sVperiod
p1102
VM09
p1103
sVvalue
p1104
V9.2
p1105
sVyear
p1106
V2015
p1107
sa(dp1108
Vfootnotes
p1109
(lp1110
(dp1111
asVperiodName
p1112
VAugust
p1113
sVperiod
p1114
VM08
p1115
sVvalue
p1116
V9.4
p1117
sVyear
p1118
V2015
p1119
sa(dp1120
Vfootnotes
p1121
(lp1122
(dp1123
asVperiodName
p1124
VJuly
p1125
sVperiod
p1126
VM07
p1127
sVvalue
p1128
V9.1
p1129
sVyear
p1130
V2015
p1131
sa(dp1132
Vfootnotes
p1133
(lp1134
(dp1135
asVperiodName
p1136
VJune
p1137
sVperiod
p1138
VM06
p1139
sVvalue
p1140
V9.5
p1141
sVyear
p1142
V2015
p1143
sa(dp1144
Vfootnotes
p1145
(lp1146
(dp1147
asVperiodName
p1148
VMay
p1149
sVperiod
p1150
VM05
p1151
sVvalue
p1152
V10.2
p1153
sVyear
p1154
V2015
p1155
sa(dp1156
Vfootnotes
p1157
(lp1158
(dp1159
asVperiodName
p1160
VApril
p1161
sVperiod
p1162
VM04
p1163
sVvalue
p1164
V9.6
p1165
sVyear
p1166
V2015
p1167
sa(dp1168
Vfootnotes
p1169
(lp1170
(dp1171
asVperiodName
p1172
VMarch
p1173
sVperiod
p1174
VM03
p1175
sVvalue
p1176
V10.0
p1177
sVyear
p1178
V2015
p1179
sa(dp1180
Vfootnotes
p1181
(lp1182
(dp1183
asVperiodName
p1184
VFebruary
p1185
sVperiod
p1186
VM02
p1187
sVvalue
p1188
V10.3
p1189
sVyear
p1190
V2015
p1191
sa(dp1192
Vfootnotes
p1193
(lp1194
(dp1195
asVperiodName
p1196
VJanuary
p1197
sVperiod
p1198
VM01
p1199
sVvalue
p1200
V10.3
p1201
sVyear
p1202
V2015
p1203
sasa(dp1204
VseriesID
p1205
VCES0500000008
p1206
sVdata
p1207
(lp1208
(dp1209
Vfootnotes
p1210
(lp1211
(dp1212
Vtext
p1213
Vpreliminary
p1214
sVcode
p1215
g21
sasVperiodName
p1216
VApril
p1217
sVperiod
p1218
VM04
p1219
sVvalue
p1220
V21.45
p1221
sVyear
p1222
V2016
p1223
sa(dp1224
Vfootnotes
p1225
(lp1226
(dp1227
Vtext
p1228
Vpreliminary
p1229
sVcode
p1230
g21
sasVperiodName
p1231
VMarch
p1232
sVperiod
p1233
VM03
p1234
sVvalue
p1235
V21.40
p1236
sVyear
p1237
V2016
p1238
sa(dp1239
Vfootnotes
p1240
(lp1241
(dp1242
asVperiodName
p1243
VFebruary
p1244
sVperiod
p1245
VM02
p1246
sVvalue
p1247
V21.35
p1248
sVyear
p1249
V2016
p1250
sa(dp1251
Vfootnotes
p1252
(lp1253
(dp1254
asVperiodName
p1255
VJanuary
p1256
sVperiod
p1257
VM01
p1258
sVvalue
p1259
V21.33
p1260
sVyear
p1261
V2016
p1262
sa(dp1263
Vfootnotes
p1264
(lp1265
(dp1266
asVperiodName
p1267
VDecember
p1268
sVperiod
p1269
VM12
p1270
sVvalue
p1271
V21.26
p1272
sVyear
p1273
V2015
p1274
sa(dp1275
Vfootnotes
p1276
(lp1277
(dp1278
asVperiodName
p1279
VNovember
p1280
sVperiod
p1281
VM11
p1282
sVvalue
p1283
V21.23
p1284
sVyear
p1285
V2015
p1286
sa(dp1287
Vfootnotes
p1288
(lp1289
(dp1290
asVperiodName
p1291
VOctober
p1292
sVperiod
p1293
VM10
p1294
sVvalue
p1295
V21.21
p1296
sVyear
p1297
V2015
p1298
sa(dp1299
Vfootnotes
p1300
(lp1301
(dp1302
asVperiodName
p1303
VSeptember
p1304
sVperiod
p1305
VM09
p1306
sVvalue
p1307
V21.12
p1308
sVyear
p1309
V2015
p1310
sa(dp1311
Vfootnotes
p1312
(lp1313
(dp1314
asVperiodName
p1315
VAugust
p1316
sVperiod
p1317
VM08
p1318
sVvalue
p1319
V21.11
p1320
sVyear
p1321
V2015
p1322
sa(dp1323
Vfootnotes
p1324
(lp1325
(dp1326
asVperiodName
p1327
VJuly
p1328
sVperiod
p1329
VM07
p1330
sVvalue
p1331
V21.05
p1332
sVyear
p1333
V2015
p1334
sa(dp1335
Vfootnotes
p1336
(lp1337
(dp1338
asVperiodName
p1339
VJune
p1340
sVperiod
p1341
VM06
p1342
sVvalue
p1343
V21.00
p1344
sVyear
p1345
V2015
p1346
sa(dp1347
Vfootnotes
p1348
(lp1349
(dp1350
asVperiodName
p1351
VMay
p1352
sVperiod
p1353
VM05
p1354
sVvalue
p1355
V20.99
p1356
sVyear
p1357
V2015
p1358
sa(dp1359
Vfootnotes
p1360
(lp1361
(dp1362
asVperiodName
p1363
VApril
p1364
sVperiod
p1365
VM04
p1366
sVvalue
p1367
V20.93
p1368
sVyear
p1369
V2015
p1370
sa(dp1371
Vfootnotes
p1372
(lp1373
(dp1374
asVperiodName
p1375
VMarch
p1376
sVperiod
p1377
VM03
p1378
sVvalue
p1379
V20.89
p1380
sVyear
p1381
V2015
p1382
sa(dp1383
Vfootnotes
p1384
(lp1385
(dp1386
asVperiodName
p1387
VFebruary
p1388
sVperiod
p1389
VM02
p1390
sVvalue
p1391
V20.83
p1392
sVyear
p1393
V2015
p1394
sa(dp1395
Vfootnotes
p1396
(lp1397
(dp1398
asVperiodName
p1399
VJanuary
p1400
sVperiod
p1401
VM01
p1402
sVvalue
p1403
V20.81
p1404
sVyear
p1405
V2015
p1406
sasa(dp1407
VseriesID
p1408
VCES2000000001
p1409
sVdata
p1410
(lp1411
(dp1412
Vfootnotes
p1413
(lp1414
(dp1415
Vtext
p1416
Vpreliminary
p1417
sVcode
p1418
g21
sasVperiodName
p1419
VApril
p1420
sVperiod
p1421
VM04
p1422
sVvalue
p1423
V6670
p1424
sVyear
p1425
V2016
p1426
sa(dp1427
Vfootnotes
p1428
(lp1429
(dp1430
Vtext
p1431
Vpreliminary
p1432
sVcode
p1433
g21
sasVperiodName
p1434
VMarch
p1435
sVperiod
p1436
VM03
p1437
sVvalue
p1438
V6669
p1439
sVyear
p1440
V2016
p1441
sa(dp1442
Vfootnotes
p1443
(lp1444
(dp1445
asVperiodName
p1446
VFebruary
p1447
sVperiod
p1448
VM02
p1449
sVvalue
p1450
V6628
p1451
sVyear
p1452
V2016
p1453
sa(dp1454
Vfootnotes
p1455
(lp1456
(dp1457
asVperiodName
p1458
VJanuary
p1459
sVperiod
p1460
VM01
p1461
sVvalue
p1462
V6615
p1463
sVyear
p1464
V2016
p1465
sa(dp1466
Vfootnotes
p1467
(lp1468
(dp1469
asVperiodName
p1470
VDecember
p1471
sVperiod
p1472
VM12
p1473
sVvalue
p1474
V6597
p1475
sVyear
p1476
V2015
p1477
sa(dp1478
Vfootnotes
p1479
(lp1480
(dp1481
asVperiodName
p1482
VNovember
p1483
sVperiod
p1484
VM11
p1485
sVvalue
p1486
V6549
p1487
sVyear
p1488
V2015
p1489
sa(dp1490
Vfootnotes
p1491
(lp1492
(dp1493
asVperiodName
p1494
VOctober
p1495
sVperiod
p1496
VM10
p1497
sVvalue
p1498
V6484
p1499
sVyear
p1500
V2015
p1501
sa(dp1502
Vfootnotes
p1503
(lp1504
(dp1505
asVperiodName
p1506
VSeptember
p1507
sVperiod
p1508
VM09
p1509
sVvalue
p1510
V6451
p1511
sVyear
p1512
V2015
p1513
sa(dp1514
Vfootnotes
p1515
(lp1516
(dp1517
asVperiodName
p1518
VAugust
p1519
sVperiod
p1520
VM08
p1521
sVvalue
p1522
V6441
p1523
sVyear
p1524
V2015
p1525
sa(dp1526
Vfootnotes
p1527
(lp1528
(dp1529
asVperiodName
p1530
VJuly
p1531
sVperiod
p1532
VM07
p1533
sVvalue
p1534
V6437
p1535
sVyear
p1536
V2015
p1537
sa(dp1538
Vfootnotes
p1539
(lp1540
(dp1541
asVperiodName
p1542
VJune
p1543
sVperiod
p1544
VM06
p1545
sVvalue
p1546
V6426
p1547
sVyear
p1548
V2015
p1549
sa(dp1550
Vfootnotes
p1551
(lp1552
(dp1553
asVperiodName
p1554
VMay
p1555
sVperiod
p1556
VM05
p1557
sVvalue
p1558
V6426
p1559
sVyear
p1560
V2015
p1561
sa(dp1562
Vfootnotes
p1563
(lp1564
(dp1565
asVperiodName
p1566
VApril
p1567
sVperiod
p1568
VM04
p1569
sVvalue
p1570
V6409
p1571
sVyear
p1572
V2015
p1573
sa(dp1574
Vfootnotes
p1575
(lp1576
(dp1577
asVperiodName
p1578
VMarch
p1579
sVperiod
p1580
VM03
p1581
sVvalue
p1582
V6371
p1583
sVyear
p1584
V2015
p1585
sa(dp1586
Vfootnotes
p1587
(lp1588
(dp1589
asVperiodName
p1590
VFebruary
p1591
sVperiod
p1592
VM02
p1593
sVvalue
p1594
V6378
p1595
sVyear
p1596
V2015
p1597
sa(dp1598
Vfootnotes
p1599
(lp1600
(dp1601
asVperiodName
p1602
VJanuary
p1603
sVperiod
p1604
VM01
p1605
sVvalue
p1606
V6351
p1607
sVyear
p1608
V2015
p1609
sasa(dp1610
VseriesID
p1611
VCES9000000001
p1612
sVdata
p1613
(lp1614
(dp1615
Vfootnotes
p1616
(lp1617
(dp1618
Vtext
p1619
Vpreliminary
p1620
sVcode
p1621
g21
sasVperiodName
p1622
VApril
p1623
sVperiod
p1624
VM04
p1625
sVvalue
p1626
V22077
p1627
sVyear
p1628
V2016
p1629
sa(dp1630
Vfootnotes
p1631
(lp1632
(dp1633
Vtext
p1634
Vpreliminary
p1635
sVcode
p1636
g21
sasVperiodName
p1637
VMarch
p1638
sVperiod
p1639
VM03
p1640
sVvalue
p1641
V22088
p1642
sVyear
p1643
V2016
p1644
sa(dp1645
Vfootnotes
p1646
(lp1647
(dp1648
asVperiodName
p1649
VFebruary
p1650
sVperiod
p1651
VM02
p1652
sVvalue
p1653
V22064
p1654
sVyear
p1655
V2016
p1656
sa(dp1657
Vfootnotes
p1658
(lp1659
(dp1660
asVperiodName
p1661
VJanuary
p1662
sVperiod
p1663
VM01
p1664
sVvalue
p1665
V22053
p1666
sVyear
p1667
V2016
p1668
sa(dp1669
Vfootnotes
p1670
(lp1671
(dp1672
asVperiodName
p1673
VDecember
p1674
sVperiod
p1675
VM12
p1676
sVvalue
p1677
V22040
p1678
sVyear
p1679
V2015
p1680
sa(dp1681
Vfootnotes
p1682
(lp1683
(dp1684
asVperiodName
p1685
VNovember
p1686
sVperiod
p1687
VM11
p1688
sVvalue
p1689
V22028
p1690
sVyear
p1691
V2015
p1692
sa(dp1693
Vfootnotes
p1694
(lp1695
(dp1696
asVperiodName
p1697
VOctober
p1698
sVperiod
p1699
VM10
p1700
sVvalue
p1701
V22027
p1702
sVyear
p1703
V2015
p1704
sa(dp1705
Vfootnotes
p1706
(lp1707
(dp1708
asVperiodName
p1709
VSeptember
p1710
sVperiod
p1711
VM09
p1712
sVvalue
p1713
V22036
p1714
sVyear
p1715
V2015
p1716
sa(dp1717
Vfootnotes
p1718
(lp1719
(dp1720
asVperiodName
p1721
VAugust
p1722
sVperiod
p1723
VM08
p1724
sVvalue
p1725
V22049
p1726
sVyear
p1727
V2015
p1728
sa(dp1729
Vfootnotes
p1730
(lp1731
(dp1732
asVperiodName
p1733
VJuly
p1734
sVperiod
p1735
VM07
p1736
sVvalue
p1737
V22022
p1738
sVyear
p1739
V2015
p1740
sa(dp1741
Vfootnotes
p1742
(lp1743
(dp1744
asVperiodName
p1745
VJune
p1746
sVperiod
p1747
VM06
p1748
sVvalue
p1749
V21990
p1750
sVyear
p1751
V2015
p1752
sa(dp1753
Vfootnotes
p1754
(lp1755
(dp1756
asVperiodName
p1757
VMay
p1758
sVperiod
p1759
VM05
p1760
sVvalue
p1761
V21988
p1762
sVyear
p1763
V2015
p1764
sa(dp1765
Vfootnotes
p1766
(lp1767
(dp1768
asVperiodName
p1769
VApril
p1770
sVperiod
p1771
VM04
p1772
sVvalue
p1773
V21971
p1774
sVyear
p1775
V2015
p1776
sa(dp1777
Vfootnotes
p1778
(lp1779
(dp1780
asVperiodName
p1781
VMarch
p1782
sVperiod
p1783
VM03
p1784
sVvalue
p1785
V21961
p1786
sVyear
p1787
V2015
p1788
sa(dp1789
Vfootnotes
p1790
(lp1791
(dp1792
asVperiodName
p1793
VFebruary
p1794
sVperiod
p1795
VM02
p1796
sVvalue
p1797
V21967
p1798
sVyear
p1799
V2015
p1800
sa(dp1801
Vfootnotes
p1802
(lp1803
(dp1804
asVperiodName
p1805
VJanuary
p1806
sVperiod
p1807
VM01
p1808
sVvalue
p1809
V21954
p1810
sVyear
p1811
V2015
p1812
sasa(dp1813
VseriesID
p1814
VLNS14000009
p1815
sVdata
p1816
(lp1817
(dp1818
Vfootnotes
p1819
(lp1820
(dp1821
asVperiodName
p1822
VApril
p1823
sVperiod
p1824
VM04
p1825
sVvalue
p1826
V6.1
p1827
sVyear
p1828
V2016
p1829
sa(dp1830
Vfootnotes
p1831
(lp1832
(dp1833
asVperiodName
p1834
VMarch
p1835
sVperiod
p1836
VM03
p1837
sVvalue
p1838
V5.6
p1839
sVyear
p1840
V2016
p1841
sa(dp1842
Vfootnotes
p1843
(lp1844
(dp1845
asVperiodName
p1846
VFebruary
p1847
sVperiod
p1848
VM02
p1849
sVvalue
p1850
V5.4
p1851
sVyear
p1852
V2016
p1853
sa(dp1854
Vfootnotes
p1855
(lp1856
(dp1857
asVperiodName
p1858
VJanuary
p1859
sVperiod
p1860
VM01
p1861
sVvalue
p1862
V5.9
p1863
sVyear
p1864
V2016
p1865
sa(dp1866
Vfootnotes
p1867
(lp1868
(dp1869
asVperiodName
p1870
VDecember
p1871
sVperiod
p1872
VM12
p1873
sVvalue
p1874
V6.3
p1875
sVyear
p1876
V2015
p1877
sa(dp1878
Vfootnotes
p1879
(lp1880
(dp1881
asVperiodName
p1882
VNovember
p1883
sVperiod
p1884
VM11
p1885
sVvalue
p1886
V6.4
p1887
sVyear
p1888
V2015
p1889
sa(dp1890
Vfootnotes
p1891
(lp1892
(dp1893
asVperiodName
p1894
VOctober
p1895
sVperiod
p1896
VM10
p1897
sVvalue
p1898
V6.4
p1899
sVyear
p1900
V2015
p1901
sa(dp1902
Vfootnotes
p1903
(lp1904
(dp1905
asVperiodName
p1906
VSeptember
p1907
sVperiod
p1908
VM09
p1909
sVvalue
p1910
V6.4
p1911
sVyear
p1912
V2015
p1913
sa(dp1914
Vfootnotes
p1915
(lp1916
(dp1917
asVperiodName
p1918
VAugust
p1919
sVperiod
p1920
VM08
p1921
sVvalue
p1922
V6.6
p1923
sVyear
p1924
V2015
p1925
sa(dp1926
Vfootnotes
p1927
(lp1928
(dp1929
asVperiodName
p1930
VJuly
p1931
sVperiod
p1932
VM07
p1933
sVvalue
p1934
V6.8
p1935
sVyear
p1936
V2015
p1937
sa(dp1938
Vfootnotes
p1939
(lp1940
(dp1941
asVperiodName
p1942
VJune
p1943
sVperiod
p1944
VM06
p1945
sVvalue
p1946
V6.6
p1947
sVyear
p1948
V2015
p1949
sa(dp1950
Vfootnotes
p1951
(lp1952
(dp1953
asVperiodName
p1954
VMay
p1955
sVperiod
p1956
VM05
p1957
sVvalue
p1958
V6.7
p1959
sVyear
p1960
V2015
p1961
sa(dp1962
Vfootnotes
p1963
(lp1964
(dp1965
asVperiodName
p1966
VApril
p1967
sVperiod
p1968
VM04
p1969
sVvalue
p1970
V6.9
p1971
sVyear
p1972
V2015
p1973
sa(dp1974
Vfootnotes
p1975
(lp1976
(dp1977
asVperiodName
p1978
VMarch
p1979
sVperiod
p1980
VM03
p1981
sVvalue
p1982
V6.8
p1983
sVyear
p1984
V2015
p1985
sa(dp1986
Vfootnotes
p1987
(lp1988
(dp1989
asVperiodName
p1990
VFebruary
p1991
sVperiod
p1992
VM02
p1993
sVvalue
p1994
V6.7
p1995
sVyear
p1996
V2015
p1997
sa(dp1998
Vfootnotes
p1999
(lp2000
(dp2001
asVperiodName
p2002
VJanuary
p2003
sVperiod
p2004
VM01
p2005
sVvalue
p2006
V6.7
p2007
sVyear
p2008
V2015
p2009
sasa(dp2010
VseriesID
p2011
VLNS12600000
p2012
sVdata
p2013
(lp2014
(dp2015
Vfootnotes
p2016
(lp2017
(dp2018
asVperiodName
p2019
VApril
p2020
sVperiod
p2021
VM04
p2022
sVvalue
p2023
V27797
p2024
sVyear
p2025
V2016
p2026
sa(dp2027
Vfootnotes
p2028
(lp2029
(dp2030
asVperiodName
p2031
VMarch
p2032
sVperiod
p2033
VM03
p2034
sVvalue
p2035
V27818
p2036
sVyear
p2037
V2016
p2038
sa(dp2039
Vfootnotes
p2040
(lp2041
(dp2042
asVperiodName
p2043
VFebruary
p2044
sVperiod
p2045
VM02
p2046
sVvalue
p2047
V27853
p2048
sVyear
p2049
V2016
p2050
sa(dp2051
Vfootnotes
p2052
(lp2053
(dp2054
asVperiodName
p2055
VJanuary
p2056
sVperiod
p2057
VM01
p2058
sVvalue
p2059
V27364
p2060
sVyear
p2061
V2016
p2062
sa(dp2063
Vfootnotes
p2064
(lp2065
(dp2066
asVperiodName
p2067
VDecember
p2068
sVperiod
p2069
VM12
p2070
sVvalue
p2071
V27359
p2072
sVyear
p2073
V2015
p2074
sa(dp2075
Vfootnotes
p2076
(lp2077
(dp2078
asVperiodName
p2079
VNovember
p2080
sVperiod
p2081
VM11
p2082
sVvalue
p2083
V27332
p2084
sVyear
p2085
V2015
p2086
sa(dp2087
Vfootnotes
p2088
(lp2089
(dp2090
asVperiodName
p2091
VOctober
p2092
sVperiod
p2093
VM10
p2094
sVvalue
p2095
V27209
p2096
sVyear
p2097
V2015
p2098
sa(dp2099
Vfootnotes
p2100
(lp2101
(dp2102
asVperiodName
p2103
VSeptember
p2104
sVperiod
p2105
VM09
p2106
sVvalue
p2107
V27009
p2108
sVyear
p2109
V2015
p2110
sa(dp2111
Vfootnotes
p2112
(lp2113
(dp2114
asVperiodName
p2115
VAugust
p2116
sVperiod
p2117
VM08
p2118
sVvalue
p2119
V26949
p2120
sVyear
p2121
V2015
p2122
sa(dp2123
Vfootnotes
p2124
(lp2125
(dp2126
asVperiodName
p2127
VJuly
p2128
sVperiod
p2129
VM07
p2130
sVvalue
p2131
V27208
p2132
sVyear
p2133
V2015
p2134
sa(dp2135
Vfootnotes
p2136
(lp2137
(dp2138
asVperiodName
p2139
VJune
p2140
sVperiod
p2141
VM06
p2142
sVvalue
p2143
V27651
p2144
sVyear
p2145
V2015
p2146
sa(dp2147
Vfootnotes
p2148
(lp2149
(dp2150
asVperiodName
p2151
VMay
p2152
sVperiod
p2153
VM05
p2154
sVvalue
p2155
V27452
p2156
sVyear
p2157
V2015
p2158
sa(dp2159
Vfootnotes
p2160
(lp2161
(dp2162
asVperiodName
p2163
VApril
p2164
sVperiod
p2165
VM04
p2166
sVvalue
p2167
V27707
p2168
sVyear
p2169
V2015
p2170
sa(dp2171
Vfootnotes
p2172
(lp2173
(dp2174
asVperiodName
p2175
VMarch
p2176
sVperiod
p2177
VM03
p2178
sVvalue
p2179
V27293
p2180
sVyear
p2181
V2015
p2182
sa(dp2183
Vfootnotes
p2184
(lp2185
(dp2186
asVperiodName
p2187
VFebruary
p2188
sVperiod
p2189
VM02
p2190
sVvalue
p2191
V27415
p2192
sVyear
p2193
V2015
p2194
sa(dp2195
Vfootnotes
p2196
(lp2197
(dp2198
asVperiodName
p2199
VJanuary
p2200
sVperiod
p2201
VM01
p2202
sVvalue
p2203
V27484
p2204
sVyear
p2205
V2015
p2206
sasa(dp2207
VseriesID
p2208
VCES4200000001
p2209
sVdata
p2210
(lp2211
(dp2212
Vfootnotes
p2213
(lp2214
(dp2215
Vtext
p2216
Vpreliminary
p2217
sVcode
p2218
g21
sasVperiodName
p2219
VApril
p2220
sVperiod
p2221
VM04
p2222
sVvalue
p2223
V15915.2
p2224
sVyear
p2225
V2016
p2226
sa(dp2227
Vfootnotes
p2228
(lp2229
(dp2230
Vtext
p2231
Vpreliminary
p2232
sVcode
p2233
g21
sasVperiodName
p2234
VMarch
p2235
sVperiod
p2236
VM03
p2237
sVvalue
p2238
V15918.3
p2239
sVyear
p2240
V2016
p2241
sa(dp2242
Vfootnotes
p2243
(lp2244
(dp2245
asVperiodName
p2246
VFebruary
p2247
sVperiod
p2248
VM02
p2249
sVvalue
p2250
V15879.3
p2251
sVyear
p2252
V2016
p2253
sa(dp2254
Vfootnotes
p2255
(lp2256
(dp2257
asVperiodName
p2258
VJanuary
p2259
sVperiod
p2260
VM01
p2261
sVvalue
p2262
V15827.3
p2263
sVyear
p2264
V2016
p2265
sa(dp2266
Vfootnotes
p2267
(lp2268
(dp2269
asVperiodName
p2270
VDecember
p2271
sVperiod
p2272
VM12
p2273
sVvalue
p2274
V15760.8
p2275
sVyear
p2276
V2015
p2277
sa(dp2278
Vfootnotes
p2279
(lp2280
(dp2281
asVperiodName
p2282
VNovember
p2283
sVperiod
p2284
VM11
p2285
sVvalue
p2286
V15754.2
p2287
sVyear
p2288
V2015
p2289
sa(dp2290
Vfootnotes
p2291
(lp2292
(dp2293
asVperiodName
p2294
VOctober
p2295
sVperiod
p2296
VM10
p2297
sVvalue
p2298
V15702.4
p2299
sVyear
p2300
V2015
p2301
sa(dp2302
Vfootnotes
p2303
(lp2304
(dp2305
asVperiodName
p2306
VSeptember
p2307
sVperiod
p2308
VM09
p2309
sVvalue
p2310
V15681.0
p2311
sVyear
p2312
V2015
p2313
sa(dp2314
Vfootnotes
p2315
(lp2316
(dp2317
asVperiodName
p2318
VAugust
p2319
sVperiod
p2320
VM08
p2321
sVvalue
p2322
V15674.6
p2323
sVyear
p2324
V2015
p2325
sa(dp2326
Vfootnotes
p2327
(lp2328
(dp2329
asVperiodName
p2330
VJuly
p2331
sVperiod
p2332
VM07
p2333
sVvalue
p2334
V15670.7
p2335
sVyear
p2336
V2015
p2337
sa(dp2338
Vfootnotes
p2339
(lp2340
(dp2341
asVperiodName
p2342
VJune
p2343
sVperiod
p2344
VM06
p2345
sVvalue
p2346
V15639.6
p2347
sVyear
p2348
V2015
p2349
sa(dp2350
Vfootnotes
p2351
(lp2352
(dp2353
asVperiodName
p2354
VMay
p2355
sVperiod
p2356
VM05
p2357
sVvalue
p2358
V15604.7
p2359
sVyear
p2360
V2015
p2361
sa(dp2362
Vfootnotes
p2363
(lp2364
(dp2365
asVperiodName
p2366
VApril
p2367
sVperiod
p2368
VM04
p2369
sVvalue
p2370
V15577.8
p2371
sVyear
p2372
V2015
p2373
sa(dp2374
Vfootnotes
p2375
(lp2376
(dp2377
asVperiodName
p2378
VMarch
p2379
sVperiod
p2380
VM03
p2381
sVvalue
p2382
V15564.4
p2383
sVyear
p2384
V2015
p2385
sa(dp2386
Vfootnotes
p2387
(lp2388
(dp2389
asVperiodName
p2390
VFebruary
p2391
sVperiod
p2392
VM02
p2393
sVvalue
p2394
V15539.2
p2395
sVyear
p2396
V2015
p2397
sa(dp2398
Vfootnotes
p2399
(lp2400
(dp2401
asVperiodName
p2402
VJanuary
p2403
sVperiod
p2404
VM01
p2405
sVvalue
p2406
V15510.0
p2407
sVyear
p2408
V2015
p2409
sasa(dp2410
VseriesID
p2411
VLNS13327709
p2412
sVdata
p2413
(lp2414
(dp2415
Vfootnotes
p2416
(lp2417
(dp2418
asVperiodName
p2419
VApril
p2420
sVperiod
p2421
VM04
p2422
sVvalue
p2423
V9.7
p2424
sVyear
p2425
V2016
p2426
sa(dp2427
Vfootnotes
p2428
(lp2429
(dp2430
asVperiodName
p2431
VMarch
p2432
sVperiod
p2433
VM03
p2434
sVvalue
p2435
V9.8
p2436
sVyear
p2437
V2016
p2438
sa(dp2439
Vfootnotes
p2440
(lp2441
(dp2442
asVperiodName
p2443
VFebruary
p2444
sVperiod
p2445
VM02
p2446
sVvalue
p2447
V9.7
p2448
sVyear
p2449
V2016
p2450
sa(dp2451
Vfootnotes
p2452
(lp2453
(dp2454
asVperiodName
p2455
VJanuary
p2456
sVperiod
p2457
VM01
p2458
sVvalue
p2459
V9.9
p2460
sVyear
p2461
V2016
p2462
sa(dp2463
Vfootnotes
p2464
(lp2465
(dp2466
asVperiodName
p2467
VDecember
p2468
sVperiod
p2469
VM12
p2470
sVvalue
p2471
V9.9
p2472
sVyear
p2473
V2015
p2474
sa(dp2475
Vfootnotes
p2476
(lp2477
(dp2478
asVperiodName
p2479
VNovember
p2480
sVperiod
p2481
VM11
p2482
sVvalue
p2483
V9.9
p2484
sVyear
p2485
V2015
p2486
sa(dp2487
Vfootnotes
p2488
(lp2489
(dp2490
asVperiodName
p2491
VOctober
p2492
sVperiod
p2493
VM10
p2494
sVvalue
p2495
V9.8
p2496
sVyear
p2497
V2015
p2498
sa(dp2499
Vfootnotes
p2500
(lp2501
(dp2502
asVperiodName
p2503
VSeptember
p2504
sVperiod
p2505
VM09
p2506
sVvalue
p2507
V10.0
p2508
sVyear
p2509
V2015
p2510
sa(dp2511
Vfootnotes
p2512
(lp2513
(dp2514
asVperiodName
p2515
VAugust
p2516
sVperiod
p2517
VM08
p2518
sVvalue
p2519
V10.3
p2520
sVyear
p2521
V2015
p2522
sa(dp2523
Vfootnotes
p2524
(lp2525
(dp2526
asVperiodName
p2527
VJuly
p2528
sVperiod
p2529
VM07
p2530
sVvalue
p2531
V10.4
p2532
sVyear
p2533
V2015
p2534
sa(dp2535
Vfootnotes
p2536
(lp2537
(dp2538
asVperiodName
p2539
VJune
p2540
sVperiod
p2541
VM06
p2542
sVvalue
p2543
V10.5
p2544
sVyear
p2545
V2015
p2546
sa(dp2547
Vfootnotes
p2548
(lp2549
(dp2550
asVperiodName
p2551
VMay
p2552
sVperiod
p2553
VM05
p2554
sVvalue
p2555
V10.7
p2556
sVyear
p2557
V2015
p2558
sa(dp2559
Vfootnotes
p2560
(lp2561
(dp2562
asVperiodName
p2563
VApril
p2564
sVperiod
p2565
VM04
p2566
sVvalue
p2567
V10.8
p2568
sVyear
p2569
V2015
p2570
sa(dp2571
Vfootnotes
p2572
(lp2573
(dp2574
asVperiodName
p2575
VMarch
p2576
sVperiod
p2577
VM03
p2578
sVvalue
p2579
V10.9
p2580
sVyear
p2581
V2015
p2582
sa(dp2583
Vfootnotes
p2584
(lp2585
(dp2586
asVperiodName
p2587
VFebruary
p2588
sVperiod
p2589
VM02
p2590
sVvalue
p2591
V11.0
p2592
sVyear
p2593
V2015
p2594
sa(dp2595
Vfootnotes
p2596
(lp2597
(dp2598
asVperiodName
p2599
VJanuary
p2600
sVperiod
p2601
VM01
p2602
sVvalue
p2603
V11.3
p2604
sVyear
p2605
V2015
p2606
sasa(dp2607
VseriesID
p2608
VCUUR0000SA0
p2609
sVdata
p2610
(lp2611
(dp2612
Vfootnotes
p2613
(lp2614
(dp2615
asVperiodName
p2616
VApril
p2617
sVperiod
p2618
VM04
p2619
sVvalue
p2620
V239.261
p2621
sVyear
p2622
V2016
p2623
sa(dp2624
Vfootnotes
p2625
(lp2626
(dp2627
asVperiodName
p2628
VMarch
p2629
sVperiod
p2630
VM03
p2631
sVvalue
p2632
V238.132
p2633
sVyear
p2634
V2016
p2635
sa(dp2636
Vfootnotes
p2637
(lp2638
(dp2639
asVperiodName
p2640
VFebruary
p2641
sVperiod
p2642
VM02
p2643
sVvalue
p2644
V237.111
p2645
sVyear
p2646
V2016
p2647
sa(dp2648
Vfootnotes
p2649
(lp2650
(dp2651
asVperiodName
p2652
VJanuary
p2653
sVperiod
p2654
VM01
p2655
sVvalue
p2656
V236.916
p2657
sVyear
p2658
V2016
p2659
sa(dp2660
Vfootnotes
p2661
(lp2662
(dp2663
asVperiodName
p2664
VDecember
p2665
sVperiod
p2666
VM12
p2667
sVvalue
p2668
V236.525
p2669
sVyear
p2670
V2015
p2671
sa(dp2672
Vfootnotes
p2673
(lp2674
(dp2675
asVperiodName
p2676
VNovember
p2677
sVperiod
p2678
VM11
p2679
sVvalue
p2680
V237.336
p2681
sVyear
p2682
V2015
p2683
sa(dp2684
Vfootnotes
p2685
(lp2686
(dp2687
asVperiodName
p2688
VOctober
p2689
sVperiod
p2690
VM10
p2691
sVvalue
p2692
V237.838
p2693
sVyear
p2694
V2015
p2695
sa(dp2696
Vfootnotes
p2697
(lp2698
(dp2699
asVperiodName
p2700
VSeptember
p2701
sVperiod
p2702
VM09
p2703
sVvalue
p2704
V237.945
p2705
sVyear
p2706
V2015
p2707
sa(dp2708
Vfootnotes
p2709
(lp2710
(dp2711
asVperiodName
p2712
VAugust
p2713
sVperiod
p2714
VM08
p2715
sVvalue
p2716
V238.316
p2717
sVyear
p2718
V2015
p2719
sa(dp2720
Vfootnotes
p2721
(lp2722
(dp2723
asVperiodName
p2724
VJuly
p2725
sVperiod
p2726
VM07
p2727
sVvalue
p2728
V238.654
p2729
sVyear
p2730
V2015
p2731
sa(dp2732
Vfootnotes
p2733
(lp2734
(dp2735
asVperiodName
p2736
VJune
p2737
sVperiod
p2738
VM06
p2739
sVvalue
p2740
V238.638
p2741
sVyear
p2742
V2015
p2743
sa(dp2744
Vfootnotes
p2745
(lp2746
(dp2747
asVperiodName
p2748
VMay
p2749
sVperiod
p2750
VM05
p2751
sVvalue
p2752
V237.805
p2753
sVyear
p2754
V2015
p2755
sa(dp2756
Vfootnotes
p2757
(lp2758
(dp2759
asVperiodName
p2760
VApril
p2761
sVperiod
p2762
VM04
p2763
sVvalue
p2764
V236.599
p2765
sVyear
p2766
V2015
p2767
sa(dp2768
Vfootnotes
p2769
(lp2770
(dp2771
asVperiodName
p2772
VMarch
p2773
sVperiod
p2774
VM03
p2775
sVvalue
p2776
V236.119
p2777
sVyear
p2778
V2015
p2779
sa(dp2780
Vfootnotes
p2781
(lp2782
(dp2783
asVperiodName
p2784
VFebruary
p2785
sVperiod
p2786
VM02
p2787
sVvalue
p2788
V234.722
p2789
sVyear
p2790
V2015
p2791
sa(dp2792
Vfootnotes
p2793
(lp2794
(dp2795
asVperiodName
p2796
VJanuary
p2797
sVperiod
p2798
VM01
p2799
sVvalue
p2800
V233.707
p2801
sVyear
p2802
V2015
p2803
sasa(dp2804
VseriesID
p2805
VLNS12032194
p2806
sVdata
p2807
(lp2808
(dp2809
Vfootnotes
p2810
(lp2811
(dp2812
asVperiodName
p2813
VApril
p2814
sVperiod
p2815
VM04
p2816
sVvalue
p2817
V5962
p2818
sVyear
p2819
V2016
p2820
sa(dp2821
Vfootnotes
p2822
(lp2823
(dp2824
asVperiodName
p2825
VMarch
p2826
sVperiod
p2827
VM03
p2828
sVvalue
p2829
V6123
p2830
sVyear
p2831
V2016
p2832
sa(dp2833
Vfootnotes
p2834
(lp2835
(dp2836
asVperiodName
p2837
VFebruary
p2838
sVperiod
p2839
VM02
p2840
sVvalue
p2841
V5988
p2842
sVyear
p2843
V2016
p2844
sa(dp2845
Vfootnotes
p2846
(lp2847
(dp2848
asVperiodName
p2849
VJanuary
p2850
sVperiod
p2851
VM01
p2852
sVvalue
p2853
V5988
p2854
sVyear
p2855
V2016
p2856
sa(dp2857
Vfootnotes
p2858
(lp2859
(dp2860
asVperiodName
p2861
VDecember
p2862
sVperiod
p2863
VM12
p2864
sVvalue
p2865
V6022
p2866
sVyear
p2867
V2015
p2868
sa(dp2869
Vfootnotes
p2870
(lp2871
(dp2872
asVperiodName
p2873
VNovember
p2874
sVperiod
p2875
VM11
p2876
sVvalue
p2877
V6085
p2878
sVyear
p2879
V2015
p2880
sa(dp2881
Vfootnotes
p2882
(lp2883
(dp2884
asVperiodName
p2885
VOctober
p2886
sVperiod
p2887
VM10
p2888
sVvalue
p2889
V5761
p2890
sVyear
p2891
V2015
p2892
sa(dp2893
Vfootnotes
p2894
(lp2895
(dp2896
asVperiodName
p2897
VSeptember
p2898
sVperiod
p2899
VM09
p2900
sVvalue
p2901
V6034
p2902
sVyear
p2903
V2015
p2904
sa(dp2905
Vfootnotes
p2906
(lp2907
(dp2908
asVperiodName
p2909
VAugust
p2910
sVperiod
p2911
VM08
p2912
sVvalue
p2913
V6481
p2914
sVyear
p2915
V2015
p2916
sa(dp2917
Vfootnotes
p2918
(lp2919
(dp2920
asVperiodName
p2921
VJuly
p2922
sVperiod
p2923
VM07
p2924
sVvalue
p2925
V6300
p2926
sVyear
p2927
V2015
p2928
sa(dp2929
Vfootnotes
p2930
(lp2931
(dp2932
asVperiodName
p2933
VJune
p2934
sVperiod
p2935
VM06
p2936
sVvalue
p2937
V6465
p2938
sVyear
p2939
V2015
p2940
sa(dp2941
Vfootnotes
p2942
(lp2943
(dp2944
asVperiodName
p2945
VMay
p2946
sVperiod
p2947
VM05
p2948
sVvalue
p2949
V6600
p2950
sVyear
p2951
V2015
p2952
sa(dp2953
Vfootnotes
p2954
(lp2955
(dp2956
asVperiodName
p2957
VApril
p2958
sVperiod
p2959
VM04
p2960
sVvalue
p2961
V6549
p2962
sVyear
p2963
V2015
p2964
sa(dp2965
Vfootnotes
p2966
(lp2967
(dp2968
asVperiodName
p2969
VMarch
p2970
sVperiod
p2971
VM03
p2972
sVvalue
p2973
V6673
p2974
sVyear
p2975
V2015
p2976
sa(dp2977
Vfootnotes
p2978
(lp2979
(dp2980
asVperiodName
p2981
VFebruary
p2982
sVperiod
p2983
VM02
p2984
sVvalue
p2985
V6630
p2986
sVyear
p2987
V2015
p2988
sa(dp2989
Vfootnotes
p2990
(lp2991
(dp2992
asVperiodName
p2993
VJanuary
p2994
sVperiod
p2995
VM01
p2996
sVvalue
p2997
V6784
p2998
sVyear
p2999
V2015
p3000
sasa(dp3001
VseriesID
p3002
VCES7000000001
p3003
sVdata
p3004
(lp3005
(dp3006
Vfootnotes
p3007
(lp3008
(dp3009
Vtext
p3010
Vpreliminary
p3011
sVcode
p3012
g21
sasVperiodName
p3013
VApril
p3014
sVperiod
p3015
VM04
p3016
sVvalue
p3017
V15459
p3018
sVyear
p3019
V2016
p3020
sa(dp3021
Vfootnotes
p3022
(lp3023
(dp3024
Vtext
p3025
Vpreliminary
p3026
sVcode
p3027
g21
sasVperiodName
p3028
VMarch
p3029
sVperiod
p3030
VM03
p3031
sVvalue
p3032
V15437
p3033
sVyear
p3034
V2016
p3035
sa(dp3036
Vfootnotes
p3037
(lp3038
(dp3039
asVperiodName
p3040
VFebruary
p3041
sVperiod
p3042
VM02
p3043
sVvalue
p3044
V15413
p3045
sVyear
p3046
V2016
p3047
sa(dp3048
Vfootnotes
p3049
(lp3050
(dp3051
asVperiodName
p3052
VJanuary
p3053
sVperiod
p3054
VM01
p3055
sVvalue
p3056
V15376
p3057
sVyear
p3058
V2016
p3059
sa(dp3060
Vfootnotes
p3061
(lp3062
(dp3063
asVperiodName
p3064
VDecember
p3065
sVperiod
p3066
VM12
p3067
sVvalue
p3068
V15342
p3069
sVyear
p3070
V2015
p3071
sa(dp3072
Vfootnotes
p3073
(lp3074
(dp3075
asVperiodName
p3076
VNovember
p3077
sVperiod
p3078
VM11
p3079
sVvalue
p3080
V15307
p3081
sVyear
p3082
V2015
p3083
sa(dp3084
Vfootnotes
p3085
(lp3086
(dp3087
asVperiodName
p3088
VOctober
p3089
sVperiod
p3090
VM10
p3091
sVvalue
p3092
V15261
p3093
sVyear
p3094
V2015
p3095
sa(dp3096
Vfootnotes
p3097
(lp3098
(dp3099
asVperiodName
p3100
VSeptember
p3101
sVperiod
p3102
VM09
p3103
sVvalue
p3104
V15208
p3105
sVyear
p3106
V2015
p3107
sa(dp3108
Vfootnotes
p3109
(lp3110
(dp3111
asVperiodName
p3112
VAugust
p3113
sVperiod
p3114
VM08
p3115
sVvalue
p3116
V15158
p3117
sVyear
p3118
V2015
p3119
sa(dp3120
Vfootnotes
p3121
(lp3122
(dp3123
asVperiodName
p3124
VJuly
p3125
sVperiod
p3126
VM07
p3127
sVvalue
p3128
V15125
p3129
sVyear
p3130
V2015
p3131
sa(dp3132
Vfootnotes
p3133
(lp3134
(dp3135
asVperiodName
p3136
VJune
p3137
sVperiod
p3138
VM06
p3139
sVvalue
p3140
V15089
p3141
sVyear
p3142
V2015
p3143
sa(dp3144
Vfootnotes
p3145
(lp3146
(dp3147
asVperiodName
p3148
VMay
p3149
sVperiod
p3150
VM05
p3151
sVvalue
p3152
V15059
p3153
sVyear
p3154
V2015
p3155
sa(dp3156
Vfootnotes
p3157
(lp3158
(dp3159
asVperiodName
p3160
VApril
p3161
sVperiod
p3162
VM04
p3163
sVvalue
p3164
V15010
p3165
sVyear
p3166
V2015
p3167
sa(dp3168
Vfootnotes
p3169
(lp3170
(dp3171
asVperiodName
p3172
VMarch
p3173
sVperiod
p3174
VM03
p3175
sVvalue
p3176
V14989
p3177
sVyear
p3178
V2015
p3179
sa(dp3180
Vfootnotes
p3181
(lp3182
(dp3183
asVperiodName
p3184
VFebruary
p3185
sVperiod
p3186
VM02
p3187
sVvalue
p3188
V14989
p3189
sVyear
p3190
V2015
p3191
sa(dp3192
Vfootnotes
p3193
(lp3194
(dp3195
asVperiodName
p3196
VJanuary
p3197
sVperiod
p3198
VM01
p3199
sVvalue
p3200
V14924
p3201
sVyear
p3202
V2015
p3203
sasa(dp3204
VseriesID
p3205
VCES6562000001
p3206
sVdata
p3207
(lp3208
(dp3209
Vfootnotes
p3210
(lp3211
(dp3212
Vtext
p3213
Vpreliminary
p3214
sVcode
p3215
g21
sasVperiodName
p3216
VApril
p3217
sVperiod
p3218
VM04
p3219
sVvalue
p3220
V19048.3
p3221
sVyear
p3222
V2016
p3223
sa(dp3224
Vfootnotes
p3225
(lp3226
(dp3227
Vtext
p3228
Vpreliminary
p3229
sVcode
p3230
g21
sasVperiodName
p3231
VMarch
p3232
sVperiod
p3233
VM03
p3234
sVvalue
p3235
V19010.1
p3236
sVyear
p3237
V2016
p3238
sa(dp3239
Vfootnotes
p3240
(lp3241
(dp3242
asVperiodName
p3243
VFebruary
p3244
sVperiod
p3245
VM02
p3246
sVvalue
p3247
V18976.1
p3248
sVyear
p3249
V2016
p3250
sa(dp3251
Vfootnotes
p3252
(lp3253
(dp3254
asVperiodName
p3255
VJanuary
p3256
sVperiod
p3257
VM01
p3258
sVvalue
p3259
V18919.4
p3260
sVyear
p3261
V2016
p3262
sa(dp3263
Vfootnotes
p3264
(lp3265
(dp3266
asVperiodName
p3267
VDecember
p3268
sVperiod
p3269
VM12
p3270
sVvalue
p3271
V18876.0
p3272
sVyear
p3273
V2015
p3274
sa(dp3275
Vfootnotes
p3276
(lp3277
(dp3278
asVperiodName
p3279
VNovember
p3280
sVperiod
p3281
VM11
p3282
sVvalue
p3283
V18829.3
p3284
sVyear
p3285
V2015
p3286
sa(dp3287
Vfootnotes
p3288
(lp3289
(dp3290
asVperiodName
p3291
VOctober
p3292
sVperiod
p3293
VM10
p3294
sVvalue
p3295
V18786.9
p3296
sVyear
p3297
V2015
p3298
sa(dp3299
Vfootnotes
p3300
(lp3301
(dp3302
asVperiodName
p3303
VSeptember
p3304
sVperiod
p3305
VM09
p3306
sVvalue
p3307
V18720.3
p3308
sVyear
p3309
V2015
p3310
sa(dp3311
Vfootnotes
p3312
(lp3313
(dp3314
asVperiodName
p3315
VAugust
p3316
sVperiod
p3317
VM08
p3318
sVvalue
p3319
V18673.4
p3320
sVyear
p3321
V2015
p3322
sa(dp3323
Vfootnotes
p3324
(lp3325
(dp3326
asVperiodName
p3327
VJuly
p3328
sVperiod
p3329
VM07
p3330
sVvalue
p3331
V18613.7
p3332
sVyear
p3333
V2015
p3334
sa(dp3335
Vfootnotes
p3336
(lp3337
(dp3338
asVperiodName
p3339
VJune
p3340
sVperiod
p3341
VM06
p3342
sVvalue
p3343
V18564.7
p3344
sVyear
p3345
V2015
p3346
sa(dp3347
Vfootnotes
p3348
(lp3349
(dp3350
asVperiodName
p3351
VMay
p3352
sVperiod
p3353
VM05
p3354
sVvalue
p3355
V18512.0
p3356
sVyear
p3357
V2015
p3358
sa(dp3359
Vfootnotes
p3360
(lp3361
(dp3362
asVperiodName
p3363
VApril
p3364
sVperiod
p3365
VM04
p3366
sVvalue
p3367
V18450.5
p3368
sVyear
p3369
V2015
p3370
sa(dp3371
Vfootnotes
p3372
(lp3373
(dp3374
asVperiodName
p3375
VMarch
p3376
sVperiod
p3377
VM03
p3378
sVvalue
p3379
V18374.9
p3380
sVyear
p3381
V2015
p3382
sa(dp3383
Vfootnotes
p3384
(lp3385
(dp3386
asVperiodName
p3387
VFebruary
p3388
sVperiod
p3389
VM02
p3390
sVvalue
p3391
V18342.7
p3392
sVyear
p3393
V2015
p3394
sa(dp3395
Vfootnotes
p3396
(lp3397
(dp3398
asVperiodName
p3399
VJanuary
p3400
sVperiod
p3401
VM01
p3402
sVvalue
p3403
V18304.1
p3404
sVyear
p3405
V2015
p3406
sasa(dp3407
VseriesID
p3408
VCES3000000001
p3409
sVdata
p3410
(lp3411
(dp3412
Vfootnotes
p3413
(lp3414
(dp3415
Vtext
p3416
Vpreliminary
p3417
sVcode
p3418
g21
sasVperiodName
p3419
VApril
p3420
sVperiod
p3421
VM04
p3422
sVvalue
p3423
V12297
p3424
sVyear
p3425
V2016
p3426
sa(dp3427
Vfootnotes
p3428
(lp3429
(dp3430
Vtext
p3431
Vpreliminary
p3432
sVcode
p3433
g21
sasVperiodName
p3434
VMarch
p3435
sVperiod
p3436
VM03
p3437
sVvalue
p3438
V12293
p3439
sVyear
p3440
V2016
p3441
sa(dp3442
Vfootnotes
p3443
(lp3444
(dp3445
asVperiodName
p3446
VFebruary
p3447
sVperiod
p3448
VM02
p3449
sVvalue
p3450
V12322
p3451
sVyear
p3452
V2016
p3453
sa(dp3454
Vfootnotes
p3455
(lp3456
(dp3457
asVperiodName
p3458
VJanuary
p3459
sVperiod
p3460
VM01
p3461
sVvalue
p3462
V12338
p3463
sVyear
p3464
V2016
p3465
sa(dp3466
Vfootnotes
p3467
(lp3468
(dp3469
asVperiodName
p3470
VDecember
p3471
sVperiod
p3472
VM12
p3473
sVvalue
p3474
V12320
p3475
sVyear
p3476
V2015
p3477
sa(dp3478
Vfootnotes
p3479
(lp3480
(dp3481
asVperiodName
p3482
VNovember
p3483
sVperiod
p3484
VM11
p3485
sVvalue
p3486
V12314
p3487
sVyear
p3488
V2015
p3489
sa(dp3490
Vfootnotes
p3491
(lp3492
(dp3493
asVperiodName
p3494
VOctober
p3495
sVperiod
p3496
VM10
p3497
sVvalue
p3498
V12311
p3499
sVyear
p3500
V2015
p3501
sa(dp3502
Vfootnotes
p3503
(lp3504
(dp3505
asVperiodName
p3506
VSeptember
p3507
sVperiod
p3508
VM09
p3509
sVvalue
p3510
V12309
p3511
sVyear
p3512
V2015
p3513
sa(dp3514
Vfootnotes
p3515
(lp3516
(dp3517
asVperiodName
p3518
VAugust
p3519
sVperiod
p3520
VM08
p3521
sVvalue
p3522
V12318
p3523
sVyear
p3524
V2015
p3525
sa(dp3526
Vfootnotes
p3527
(lp3528
(dp3529
asVperiodName
p3530
VJuly
p3531
sVperiod
p3532
VM07
p3533
sVvalue
p3534
V12336
p3535
sVyear
p3536
V2015
p3537
sa(dp3538
Vfootnotes
p3539
(lp3540
(dp3541
asVperiodName
p3542
VJune
p3543
sVperiod
p3544
VM06
p3545
sVvalue
p3546
V12325
p3547
sVyear
p3548
V2015
p3549
sa(dp3550
Vfootnotes
p3551
(lp3552
(dp3553
asVperiodName
p3554
VMay
p3555
sVperiod
p3556
VM05
p3557
sVvalue
p3558
V12324
p3559
sVyear
p3560
V2015
p3561
sa(dp3562
Vfootnotes
p3563
(lp3564
(dp3565
asVperiodName
p3566
VApril
p3567
sVperiod
p3568
VM04
p3569
sVvalue
p3570
V12316
p3571
sVyear
p3572
V2015
p3573
sa(dp3574
Vfootnotes
p3575
(lp3576
(dp3577
asVperiodName
p3578
VMarch
p3579
sVperiod
p3580
VM03
p3581
sVvalue
p3582
V12318
p3583
sVyear
p3584
V2015
p3585
sa(dp3586
Vfootnotes
p3587
(lp3588
(dp3589
asVperiodName
p3590
VFebruary
p3591
sVperiod
p3592
VM02
p3593
sVvalue
p3594
V12315
p3595
sVyear
p3596
V2015
p3597
sa(dp3598
Vfootnotes
p3599
(lp3600
(dp3601
asVperiodName
p3602
VJanuary
p3603
sVperiod
p3604
VM01
p3605
sVvalue
p3606
V12311
p3607
sVyear
p3608
V2015
p3609
sasassVresponseTime
p3610
I283
s.